; Listing generated by Microsoft (R) Optimizing Compiler Version 18.00.21005.1 

	TITLE	D:\Workspace\cocos2d-x-3.8.1\projects\mygame\libs\smartfox\ZLib\gzread.c
	.686P
	.XMM
	include listing.inc
	.model	flat

INCLUDELIB OLDNAMES

PUBLIC	??_C@_0BH@CFIIDOJD@unexpected?5end?5of?5file?$AA@ ; `string'
PUBLIC	??_C@_0CH@CPOLIEKA@internal?5error?3?5inflate?5stream?5c@ ; `string'
PUBLIC	??_C@_0BG@HCKBMIHF@compressed?5data?5error?$AA@	; `string'
PUBLIC	??_C@_0CF@MLPJFDMM@requested?5length?5does?5not?5fit?5in@ ; `string'
PUBLIC	??_C@_0BP@IIKIGMCC@out?5of?5room?5to?5push?5characters?$AA@ ; `string'
EXTRN	__errno:PROC
EXTRN	_memchr:PROC
EXTRN	_strerror:PROC
EXTRN	_close:PROC
EXTRN	_read:PROC
;	COMDAT ??_C@_0BP@IIKIGMCC@out?5of?5room?5to?5push?5characters?$AA@
CONST	SEGMENT
??_C@_0BP@IIKIGMCC@out?5of?5room?5to?5push?5characters?$AA@ DB 'out of ro'
	DB	'om to push characters', 00H			; `string'
CONST	ENDS
;	COMDAT ??_C@_0CF@MLPJFDMM@requested?5length?5does?5not?5fit?5in@
CONST	SEGMENT
??_C@_0CF@MLPJFDMM@requested?5length?5does?5not?5fit?5in@ DB 'requested l'
	DB	'ength does not fit in int', 00H		; `string'
CONST	ENDS
;	COMDAT ??_C@_0BG@HCKBMIHF@compressed?5data?5error?$AA@
CONST	SEGMENT
??_C@_0BG@HCKBMIHF@compressed?5data?5error?$AA@ DB 'compressed data error'
	DB	00H						; `string'
CONST	ENDS
;	COMDAT ??_C@_0CH@CPOLIEKA@internal?5error?3?5inflate?5stream?5c@
CONST	SEGMENT
??_C@_0CH@CPOLIEKA@internal?5error?3?5inflate?5stream?5c@ DB 'internal er'
	DB	'ror: inflate stream corrupt', 00H		; `string'
CONST	ENDS
;	COMDAT ??_C@_0BH@CFIIDOJD@unexpected?5end?5of?5file?$AA@
CONST	SEGMENT
??_C@_0BH@CFIIDOJD@unexpected?5end?5of?5file?$AA@ DB 'unexpected end of f'
	DB	'ile', 00H					; `string'
PUBLIC	_gzdirect@4
PUBLIC	_gzgets@12
PUBLIC	_gzungetc@8
PUBLIC	_gzgetc_@4
PUBLIC	_gzgetc@4
PUBLIC	_gzread@12
PUBLIC	_gzclose_r@4
; Function compile flags: /Ogtp
; File d:\workspace\cocos2d-x-3.8.1\projects\mygame\libs\smartfox\zlib\gzread.c
;	COMDAT _gzclose_r@4
_TEXT	SEGMENT
_file$ = 8						; size = 4
_gzclose_r@4 PROC					; COMDAT

; 564  : {

  00000	55		 push	 ebp
  00001	8b ec		 mov	 ebp, esp
  00003	53		 push	 ebx

; 565  :     int ret, err;
; 566  :     gz_statep state;
; 567  : 
; 568  :     /* get internal structure */
; 569  :     if (file == NULL)

  00004	8b 5d 08	 mov	 ebx, DWORD PTR _file$[ebp]
  00007	85 db		 test	 ebx, ebx
  00009	75 0a		 jne	 SHORT $LN3@gzclose_r
$LN6@gzclose_r:

; 570  :         return Z_STREAM_ERROR;

  0000b	b8 fe ff ff ff	 mov	 eax, -2			; fffffffeH
  00010	5b		 pop	 ebx

; 589  : }

  00011	5d		 pop	 ebp
  00012	c2 04 00	 ret	 4
$LN3@gzclose_r:

; 571  :     state = (gz_statep)file;
; 572  : 
; 573  :     /* check that we're reading */
; 574  :     if (state->mode != GZ_READ)

  00015	81 7b 10 4f 1c
	00 00		 cmp	 DWORD PTR [ebx+16], 7247 ; 00001c4fH
  0001c	75 ed		 jne	 SHORT $LN6@gzclose_r

; 575  :         return Z_STREAM_ERROR;
; 576  : 
; 577  :     /* free memory and close file */
; 578  :     if (state->size) {

  0001e	83 7b 1c 00	 cmp	 DWORD PTR [ebx+28], 0
  00022	74 1c		 je	 SHORT $LN1@gzclose_r

; 579  :         inflateEnd(&(state->strm));

  00024	8d 43 64	 lea	 eax, DWORD PTR [ebx+100]
  00027	50		 push	 eax
  00028	e8 00 00 00 00	 call	 _inflateEnd@4

; 580  :         free(state->out);

  0002d	ff 73 28	 push	 DWORD PTR [ebx+40]
  00030	e8 00 00 00 00	 call	 _free

; 581  :         free(state->in);

  00035	ff 73 24	 push	 DWORD PTR [ebx+36]
  00038	e8 00 00 00 00	 call	 _free
  0003d	83 c4 08	 add	 esp, 8
$LN1@gzclose_r:

; 582  :     }
; 583  :     err = state->err == Z_BUF_ERROR ? Z_BUF_ERROR : Z_OK;

  00040	56		 push	 esi
  00041	57		 push	 edi
  00042	b8 fb ff ff ff	 mov	 eax, -5			; fffffffbH
  00047	33 ff		 xor	 edi, edi
  00049	39 43 5c	 cmp	 DWORD PTR [ebx+92], eax

; 584  :     gz_error(state, Z_OK, NULL);

  0004c	8b cb		 mov	 ecx, ebx
  0004e	6a 00		 push	 0
  00050	0f 44 f8	 cmove	 edi, eax
  00053	33 d2		 xor	 edx, edx
  00055	e8 00 00 00 00	 call	 _gz_error

; 585  :     free(state->path);

  0005a	ff 73 18	 push	 DWORD PTR [ebx+24]
  0005d	e8 00 00 00 00	 call	 _free

; 586  :     ret = close(state->fd);

  00062	ff 73 14	 push	 DWORD PTR [ebx+20]
  00065	e8 00 00 00 00	 call	 _close

; 587  :     free(state);

  0006a	53		 push	 ebx
  0006b	8b f0		 mov	 esi, eax
  0006d	e8 00 00 00 00	 call	 _free
  00072	83 c4 10	 add	 esp, 16			; 00000010H

; 588  :     return ret ? Z_ERRNO : err;

  00075	83 c8 ff	 or	 eax, -1
  00078	85 f6		 test	 esi, esi
  0007a	0f 45 f8	 cmovne	 edi, eax
  0007d	8b c7		 mov	 eax, edi
  0007f	5f		 pop	 edi
  00080	5e		 pop	 esi
  00081	5b		 pop	 ebx

; 589  : }

  00082	5d		 pop	 ebp
  00083	c2 04 00	 ret	 4
_gzclose_r@4 ENDP
_TEXT	ENDS
; Function compile flags: /Ogtp
; File d:\workspace\cocos2d-x-3.8.1\projects\mygame\libs\smartfox\zlib\gzread.c
;	COMDAT _gz_load
_TEXT	SEGMENT
_buf$1$ = -4						; size = 4
_len$ = 8						; size = 4
_have$ = 12						; size = 4
_gz_load PROC						; COMDAT
; _state$ = ecx
; _buf$ = edx

; 25   : {

  00000	55		 push	 ebp
  00001	8b ec		 mov	 ebp, esp
  00003	51		 push	 ecx
  00004	53		 push	 ebx
  00005	56		 push	 esi

; 26   :     int ret;
; 27   : 
; 28   :     *have = 0;

  00006	8b 75 0c	 mov	 esi, DWORD PTR _have$[ebp]
  00009	8b d9		 mov	 ebx, ecx
  0000b	57		 push	 edi
  0000c	8b 7d 08	 mov	 edi, DWORD PTR _len$[ebp]
  0000f	89 55 fc	 mov	 DWORD PTR _buf$1$[ebp], edx
  00012	c7 06 00 00 00
	00		 mov	 DWORD PTR [esi], 0
$LL6@gz_load:

; 29   :     do {
; 30   :         ret = read(state->fd, buf + *have, len - *have);

  00018	8b c7		 mov	 eax, edi
  0001a	2b 06		 sub	 eax, DWORD PTR [esi]
  0001c	50		 push	 eax
  0001d	8b 45 fc	 mov	 eax, DWORD PTR _buf$1$[ebp]
  00020	03 06		 add	 eax, DWORD PTR [esi]
  00022	50		 push	 eax
  00023	ff 73 14	 push	 DWORD PTR [ebx+20]
  00026	e8 00 00 00 00	 call	 _read
  0002b	83 c4 0c	 add	 esp, 12			; 0000000cH

; 31   :         if (ret <= 0)

  0002e	85 c0		 test	 eax, eax
  00030	7e 08		 jle	 SHORT $LN13@gz_load

; 32   :             break;
; 33   :         *have += ret;

  00032	01 06		 add	 DWORD PTR [esi], eax

; 34   :     } while (*have < len);

  00034	39 3e		 cmp	 DWORD PTR [esi], edi
  00036	72 e0		 jb	 SHORT $LL6@gz_load

; 35   :     if (ret < 0) {

  00038	85 c0		 test	 eax, eax
$LN13@gz_load:
  0003a	79 24		 jns	 SHORT $LN2@gz_load

; 36   :         gz_error(state, Z_ERRNO, zstrerror());

  0003c	e8 00 00 00 00	 call	 __errno
  00041	ff 30		 push	 DWORD PTR [eax]
  00043	e8 00 00 00 00	 call	 _strerror
  00048	50		 push	 eax
  00049	83 ca ff	 or	 edx, -1
  0004c	8b cb		 mov	 ecx, ebx
  0004e	e8 00 00 00 00	 call	 _gz_error
  00053	83 c4 08	 add	 esp, 8

; 37   :         return -1;

  00056	83 c8 ff	 or	 eax, -1
  00059	5f		 pop	 edi
  0005a	5e		 pop	 esi
  0005b	5b		 pop	 ebx

; 42   : }

  0005c	8b e5		 mov	 esp, ebp
  0005e	5d		 pop	 ebp
  0005f	c3		 ret	 0
$LN2@gz_load:

; 38   :     }
; 39   :     if (ret == 0)

  00060	85 c0		 test	 eax, eax
  00062	75 07		 jne	 SHORT $LN1@gz_load

; 40   :         state->eof = 1;

  00064	c7 43 40 01 00
	00 00		 mov	 DWORD PTR [ebx+64], 1
$LN1@gz_load:
  0006b	5f		 pop	 edi
  0006c	5e		 pop	 esi

; 41   :     return 0;

  0006d	33 c0		 xor	 eax, eax
  0006f	5b		 pop	 ebx

; 42   : }

  00070	8b e5		 mov	 esp, ebp
  00072	5d		 pop	 ebp
  00073	c3		 ret	 0
_gz_load ENDP
_TEXT	ENDS
; Function compile flags: /Ogtp
; File d:\workspace\cocos2d-x-3.8.1\projects\mygame\libs\smartfox\zlib\gzread.c
;	COMDAT _gz_avail
_TEXT	SEGMENT
_got$ = -4						; size = 4
_gz_avail PROC						; COMDAT
; _state$ = ecx

; 53   : {

  00000	55		 push	 ebp
  00001	8b ec		 mov	 ebp, esp
  00003	51		 push	 ecx
  00004	56		 push	 esi
  00005	8b f1		 mov	 esi, ecx

; 54   :     unsigned got;
; 55   :     z_streamp strm = &(state->strm);
; 56   : 
; 57   :     if (state->err != Z_OK && state->err != Z_BUF_ERROR)

  00007	8b 46 5c	 mov	 eax, DWORD PTR [esi+92]
  0000a	85 c0		 test	 eax, eax
  0000c	74 0d		 je	 SHORT $LN7@gz_avail
  0000e	83 f8 fb	 cmp	 eax, -5			; fffffffbH
  00011	74 08		 je	 SHORT $LN7@gz_avail
$LN13@gz_avail:

; 58   :         return -1;

  00013	83 c8 ff	 or	 eax, -1
  00016	5e		 pop	 esi

; 74   : }

  00017	8b e5		 mov	 esp, ebp
  00019	5d		 pop	 ebp
  0001a	c3		 ret	 0
$LN7@gz_avail:

; 59   :     if (state->eof == 0) {

  0001b	83 7e 40 00	 cmp	 DWORD PTR [esi+64], 0
  0001f	75 4a		 jne	 SHORT $LN6@gz_avail

; 60   :         if (strm->avail_in) {       /* copy what's there to the start */

  00021	57		 push	 edi
  00022	8b 7e 68	 mov	 edi, DWORD PTR [esi+104]
  00025	85 ff		 test	 edi, edi
  00027	74 15		 je	 SHORT $LN2@gz_avail

; 61   :             unsigned char *p = state->in, *q = strm->next_in;

  00029	8b 4e 24	 mov	 ecx, DWORD PTR [esi+36]
  0002c	8b 56 64	 mov	 edx, DWORD PTR [esi+100]
  0002f	90		 npad	 1
$LL4@gz_avail:

; 62   :             unsigned n = strm->avail_in;
; 63   :             do {
; 64   :                 *p++ = *q++;

  00030	8a 02		 mov	 al, BYTE PTR [edx]
  00032	8d 49 01	 lea	 ecx, DWORD PTR [ecx+1]
  00035	88 41 ff	 mov	 BYTE PTR [ecx-1], al
  00038	8d 52 01	 lea	 edx, DWORD PTR [edx+1]

; 65   :             } while (--n);

  0003b	4f		 dec	 edi
  0003c	75 f2		 jne	 SHORT $LL4@gz_avail
$LN2@gz_avail:

; 66   :         }
; 67   :         if (gz_load(state, state->in + strm->avail_in,
; 68   :                     state->size - strm->avail_in, &got) == -1)

  0003e	8b 56 24	 mov	 edx, DWORD PTR [esi+36]
  00041	8d 45 fc	 lea	 eax, DWORD PTR _got$[ebp]
  00044	03 56 68	 add	 edx, DWORD PTR [esi+104]
  00047	8b ce		 mov	 ecx, esi
  00049	50		 push	 eax
  0004a	8b 46 1c	 mov	 eax, DWORD PTR [esi+28]
  0004d	2b 46 68	 sub	 eax, DWORD PTR [esi+104]
  00050	50		 push	 eax
  00051	e8 00 00 00 00	 call	 _gz_load
  00056	83 c4 08	 add	 esp, 8
  00059	5f		 pop	 edi
  0005a	83 f8 ff	 cmp	 eax, -1
  0005d	74 b4		 je	 SHORT $LN13@gz_avail

; 69   :             return -1;
; 70   :         strm->avail_in += got;

  0005f	8b 45 fc	 mov	 eax, DWORD PTR _got$[ebp]
  00062	01 46 68	 add	 DWORD PTR [esi+104], eax

; 71   :         strm->next_in = state->in;

  00065	8b 46 24	 mov	 eax, DWORD PTR [esi+36]
  00068	89 46 64	 mov	 DWORD PTR [esi+100], eax
$LN6@gz_avail:

; 72   :     }
; 73   :     return 0;

  0006b	33 c0		 xor	 eax, eax
  0006d	5e		 pop	 esi

; 74   : }

  0006e	8b e5		 mov	 esp, ebp
  00070	5d		 pop	 ebp
  00071	c3		 ret	 0
_gz_avail ENDP
_TEXT	ENDS
; Function compile flags: /Ogtp
; File d:\workspace\cocos2d-x-3.8.1\projects\mygame\libs\smartfox\zlib\gzread.c
;	COMDAT _gz_look
_TEXT	SEGMENT
_gz_look PROC						; COMDAT
; _state$ = ecx

; 87   : {

  00000	53		 push	 ebx
  00001	57		 push	 edi
  00002	8b f9		 mov	 edi, ecx

; 88   :     z_streamp strm = &(state->strm);
; 89   : 
; 90   :     /* allocate read buffers and inflate memory */
; 91   :     if (state->size == 0) {

  00004	83 7f 1c 00	 cmp	 DWORD PTR [edi+28], 0
  00008	8d 5f 64	 lea	 ebx, DWORD PTR [edi+100]
  0000b	0f 85 d9 00 00
	00		 jne	 $LN7@gz_look

; 92   :         /* allocate buffers */
; 93   :         state->in = malloc(state->want);

  00011	8b 47 20	 mov	 eax, DWORD PTR [edi+32]
  00014	56		 push	 esi
  00015	50		 push	 eax
  00016	e8 00 00 00 00	 call	 _malloc

; 94   :         state->out = malloc(state->want << 1);

  0001b	8b 4f 20	 mov	 ecx, DWORD PTR [edi+32]
  0001e	8b f0		 mov	 esi, eax
  00020	03 c9		 add	 ecx, ecx
  00022	89 77 24	 mov	 DWORD PTR [edi+36], esi
  00025	51		 push	 ecx
  00026	e8 00 00 00 00	 call	 _malloc
  0002b	83 c4 08	 add	 esp, 8
  0002e	89 47 28	 mov	 DWORD PTR [edi+40], eax

; 95   :         if (state->in == NULL || state->out == NULL) {

  00031	85 f6		 test	 esi, esi
  00033	5e		 pop	 esi
  00034	74 7d		 je	 SHORT $LN10@gz_look
  00036	85 c0		 test	 eax, eax
  00038	0f 84 82 00 00
	00		 je	 $LN9@gz_look

; 102  :         }
; 103  :         state->size = state->want;

  0003e	8b 47 20	 mov	 eax, DWORD PTR [edi+32]

; 104  : 
; 105  :         /* allocate inflate memory */
; 106  :         state->strm.zalloc = Z_NULL;
; 107  :         state->strm.zfree = Z_NULL;
; 108  :         state->strm.opaque = Z_NULL;
; 109  :         state->strm.avail_in = 0;
; 110  :         state->strm.next_in = Z_NULL;
; 111  :         if (inflateInit2(&(state->strm), 15 + 16) != Z_OK) {    /* gunzip */

  00041	6a 38		 push	 56			; 00000038H
  00043	68 00 00 00 00	 push	 OFFSET ??_C@_05HBMOAMF@1?42?47?$AA@
  00048	6a 1f		 push	 31			; 0000001fH
  0004a	53		 push	 ebx
  0004b	89 47 1c	 mov	 DWORD PTR [edi+28], eax
  0004e	c7 87 84 00 00
	00 00 00 00 00	 mov	 DWORD PTR [edi+132], 0
  00058	c7 87 88 00 00
	00 00 00 00 00	 mov	 DWORD PTR [edi+136], 0
  00062	c7 87 8c 00 00
	00 00 00 00 00	 mov	 DWORD PTR [edi+140], 0
  0006c	c7 47 68 00 00
	00 00		 mov	 DWORD PTR [edi+104], 0
  00073	c7 03 00 00 00
	00		 mov	 DWORD PTR [ebx], 0
  00079	e8 00 00 00 00	 call	 _inflateInit2_@16
  0007e	85 c0		 test	 eax, eax
  00080	74 68		 je	 SHORT $LN7@gz_look

; 112  :             free(state->out);

  00082	ff 77 28	 push	 DWORD PTR [edi+40]
  00085	e8 00 00 00 00	 call	 _free

; 113  :             free(state->in);

  0008a	ff 77 24	 push	 DWORD PTR [edi+36]
  0008d	e8 00 00 00 00	 call	 _free

; 114  :             state->size = 0;
; 115  :             gz_error(state, Z_MEM_ERROR, "out of memory");

  00092	68 00 00 00 00	 push	 OFFSET ??_C@_0O@BNNCBLEN@out?5of?5memory?$AA@
  00097	ba fc ff ff ff	 mov	 edx, -4			; fffffffcH
  0009c	c7 47 1c 00 00
	00 00		 mov	 DWORD PTR [edi+28], 0
  000a3	8b cf		 mov	 ecx, edi
  000a5	e8 00 00 00 00	 call	 _gz_error
  000aa	83 c4 0c	 add	 esp, 12			; 0000000cH

; 116  :             return -1;

  000ad	83 c8 ff	 or	 eax, -1
  000b0	5f		 pop	 edi
  000b1	5b		 pop	 ebx

; 164  : }

  000b2	c3		 ret	 0
$LN10@gz_look:

; 96   :             if (state->out != NULL)

  000b3	85 c0		 test	 eax, eax
  000b5	74 09		 je	 SHORT $LN9@gz_look

; 97   :                 free(state->out);

  000b7	50		 push	 eax
  000b8	e8 00 00 00 00	 call	 _free
  000bd	83 c4 04	 add	 esp, 4
$LN9@gz_look:

; 98   :             if (state->in != NULL)

  000c0	8b 47 24	 mov	 eax, DWORD PTR [edi+36]
  000c3	85 c0		 test	 eax, eax
  000c5	74 09		 je	 SHORT $LN8@gz_look

; 99   :                 free(state->in);

  000c7	50		 push	 eax
  000c8	e8 00 00 00 00	 call	 _free
  000cd	83 c4 04	 add	 esp, 4
$LN8@gz_look:

; 100  :             gz_error(state, Z_MEM_ERROR, "out of memory");

  000d0	68 00 00 00 00	 push	 OFFSET ??_C@_0O@BNNCBLEN@out?5of?5memory?$AA@
  000d5	ba fc ff ff ff	 mov	 edx, -4			; fffffffcH
  000da	8b cf		 mov	 ecx, edi
  000dc	e8 00 00 00 00	 call	 _gz_error
  000e1	83 c4 04	 add	 esp, 4
$LN16@gz_look:

; 101  :             return -1;

  000e4	5f		 pop	 edi
  000e5	83 c8 ff	 or	 eax, -1
  000e8	5b		 pop	 ebx

; 164  : }

  000e9	c3		 ret	 0
$LN7@gz_look:

; 117  :         }
; 118  :     }
; 119  : 
; 120  :     /* get at least the magic bytes in the input buffer */
; 121  :     if (strm->avail_in < 2) {

  000ea	8b 43 04	 mov	 eax, DWORD PTR [ebx+4]
  000ed	83 f8 02	 cmp	 eax, 2
  000f0	73 13		 jae	 SHORT $LN4@gz_look

; 122  :         if (gz_avail(state) == -1)

  000f2	8b cf		 mov	 ecx, edi
  000f4	e8 00 00 00 00	 call	 _gz_avail
  000f9	83 f8 ff	 cmp	 eax, -1
  000fc	74 e6		 je	 SHORT $LN16@gz_look

; 123  :             return -1;
; 124  :         if (strm->avail_in == 0)

  000fe	8b 43 04	 mov	 eax, DWORD PTR [ebx+4]
  00101	85 c0		 test	 eax, eax
  00103	74 7d		 je	 SHORT $LN15@gz_look
$LN4@gz_look:

; 125  :             return 0;
; 126  :     }
; 127  : 
; 128  :     /* look for gzip magic bytes -- if there, do gzip decoding (note: there is
; 129  :        a logical dilemma here when considering the case of a partially written
; 130  :        gzip file, to wit, if a single 31 byte is written, then we cannot tell
; 131  :        whether this is a single-byte file, or just a partially written gzip
; 132  :        file -- for here we assume that if a gzip file is being written, then
; 133  :        the header will be written in a single operation, so that reading a
; 134  :        single byte is sufficient indication that it is not a gzip file) */
; 135  :     if (strm->avail_in > 1 &&
; 136  :             strm->next_in[0] == 31 && strm->next_in[1] == 139) {

  00105	83 f8 01	 cmp	 eax, 1
  00108	76 26		 jbe	 SHORT $LN3@gz_look
  0010a	8b 03		 mov	 eax, DWORD PTR [ebx]
  0010c	80 38 1f	 cmp	 BYTE PTR [eax], 31	; 0000001fH
  0010f	75 1f		 jne	 SHORT $LN3@gz_look
  00111	80 78 01 8b	 cmp	 BYTE PTR [eax+1], 139	; 0000008bH
  00115	75 19		 jne	 SHORT $LN3@gz_look

; 137  :         inflateReset(strm);

  00117	53		 push	 ebx
  00118	e8 00 00 00 00	 call	 _inflateReset@4

; 138  :         state->how = GZIP;

  0011d	c7 47 30 02 00
	00 00		 mov	 DWORD PTR [edi+48], 2

; 163  :     return 0;

  00124	33 c0		 xor	 eax, eax
  00126	c7 47 2c 00 00
	00 00		 mov	 DWORD PTR [edi+44], 0
  0012d	5f		 pop	 edi
  0012e	5b		 pop	 ebx

; 164  : }

  0012f	c3		 ret	 0
$LN3@gz_look:

; 139  :         state->direct = 0;
; 140  :         return 0;
; 141  :     }
; 142  : 
; 143  :     /* no gzip header -- if we were decoding gzip before, then this is trailing
; 144  :        garbage.  Ignore the trailing garbage and finish. */
; 145  :     if (state->direct == 0) {

  00130	83 7f 2c 00	 cmp	 DWORD PTR [edi+44], 0
  00134	75 19		 jne	 SHORT $LN2@gz_look

; 146  :         strm->avail_in = 0;

  00136	c7 43 04 00 00
	00 00		 mov	 DWORD PTR [ebx+4], 0

; 163  :     return 0;

  0013d	33 c0		 xor	 eax, eax
  0013f	c7 47 40 01 00
	00 00		 mov	 DWORD PTR [edi+64], 1
  00146	c7 07 00 00 00
	00		 mov	 DWORD PTR [edi], 0
  0014c	5f		 pop	 edi
  0014d	5b		 pop	 ebx

; 164  : }

  0014e	c3		 ret	 0
$LN2@gz_look:

; 147  :         state->eof = 1;
; 148  :         state->x.have = 0;
; 149  :         return 0;
; 150  :     }
; 151  : 
; 152  :     /* doing raw i/o, copy any leftover input to output -- this assumes that
; 153  :        the output buffer is larger than the input buffer, which also assures
; 154  :        space for gzungetc() */
; 155  :     state->x.next = state->out;

  0014f	8b 47 28	 mov	 eax, DWORD PTR [edi+40]
  00152	89 47 04	 mov	 DWORD PTR [edi+4], eax

; 156  :     if (strm->avail_in) {

  00155	8b 4b 04	 mov	 ecx, DWORD PTR [ebx+4]
  00158	85 c9		 test	 ecx, ecx
  0015a	74 18		 je	 SHORT $LN1@gz_look

; 157  :         memcpy(state->x.next, strm->next_in, strm->avail_in);

  0015c	51		 push	 ecx
  0015d	ff 33		 push	 DWORD PTR [ebx]
  0015f	50		 push	 eax
  00160	e8 00 00 00 00	 call	 _memcpy

; 158  :         state->x.have = strm->avail_in;

  00165	8b 43 04	 mov	 eax, DWORD PTR [ebx+4]
  00168	83 c4 0c	 add	 esp, 12			; 0000000cH
  0016b	89 07		 mov	 DWORD PTR [edi], eax

; 159  :         strm->avail_in = 0;

  0016d	c7 43 04 00 00
	00 00		 mov	 DWORD PTR [ebx+4], 0
$LN1@gz_look:

; 160  :     }
; 161  :     state->how = COPY;

  00174	c7 47 30 01 00
	00 00		 mov	 DWORD PTR [edi+48], 1

; 162  :     state->direct = 1;

  0017b	c7 47 2c 01 00
	00 00		 mov	 DWORD PTR [edi+44], 1
$LN15@gz_look:

; 163  :     return 0;

  00182	5f		 pop	 edi
  00183	33 c0		 xor	 eax, eax
  00185	5b		 pop	 ebx

; 164  : }

  00186	c3		 ret	 0
_gz_look ENDP
_TEXT	ENDS
; Function compile flags: /Ogtp
; File d:\workspace\cocos2d-x-3.8.1\projects\mygame\libs\smartfox\zlib\gzread.c
;	COMDAT _gz_decomp
_TEXT	SEGMENT
_had$1$ = -4						; size = 4
_gz_decomp PROC						; COMDAT
; _state$ = ecx

; 173  : {

  00000	55		 push	 ebp
  00001	8b ec		 mov	 ebp, esp
  00003	51		 push	 ecx
  00004	53		 push	 ebx
  00005	8b d9		 mov	 ebx, ecx

; 174  :     int ret = Z_OK;
; 175  :     unsigned had;
; 176  :     z_streamp strm = &(state->strm);
; 177  : 
; 178  :     /* fill output buffer up to end of deflate stream */
; 179  :     had = strm->avail_out;

  00007	8b 43 74	 mov	 eax, DWORD PTR [ebx+116]
  0000a	56		 push	 esi
  0000b	57		 push	 edi
  0000c	8d 7b 64	 lea	 edi, DWORD PTR [ebx+100]
  0000f	89 45 fc	 mov	 DWORD PTR _had$1$[ebp], eax
  00012	33 f6		 xor	 esi, esi
$LL11@gz_decomp:

; 180  :     do {
; 181  :         /* get more input for inflate() */
; 182  :         if (strm->avail_in == 0 && gz_avail(state) == -1)

  00014	83 7f 04 00	 cmp	 DWORD PTR [edi+4], 0
  00018	75 16		 jne	 SHORT $LN24@gz_decomp
  0001a	8b cb		 mov	 ecx, ebx
  0001c	e8 00 00 00 00	 call	 _gz_avail
  00021	83 f8 ff	 cmp	 eax, -1
  00024	0f 84 cb 00 00
	00		 je	 $LN17@gz_decomp

; 183  :             return -1;
; 184  :         if (strm->avail_in == 0) {

  0002a	83 7f 04 00	 cmp	 DWORD PTR [edi+4], 0
  0002e	74 33		 je	 SHORT $LN18@gz_decomp
$LN24@gz_decomp:

; 186  :             break;
; 187  :         }
; 188  : 
; 189  :         /* decompress and handle errors */
; 190  :         ret = inflate(strm, Z_NO_FLUSH);

  00030	6a 00		 push	 0
  00032	57		 push	 edi
  00033	e8 00 00 00 00	 call	 _inflate@8
  00038	8b f0		 mov	 esi, eax

; 191  :         if (ret == Z_STREAM_ERROR || ret == Z_NEED_DICT) {

  0003a	83 fe fe	 cmp	 esi, -2			; fffffffeH
  0003d	0f 84 9e 00 00
	00		 je	 $LN5@gz_decomp
  00043	83 fe 02	 cmp	 esi, 2
  00046	0f 84 95 00 00
	00		 je	 $LN5@gz_decomp

; 195  :         }
; 196  :         if (ret == Z_MEM_ERROR) {

  0004c	83 fe fc	 cmp	 esi, -4			; fffffffcH
  0004f	74 72		 je	 SHORT $LN20@gz_decomp

; 198  :             return -1;
; 199  :         }
; 200  :         if (ret == Z_DATA_ERROR) {              /* deflate stream invalid */

  00051	83 fe fd	 cmp	 esi, -3			; fffffffdH
  00054	74 46		 je	 SHORT $LN21@gz_decomp

; 203  :             return -1;
; 204  :         }
; 205  :     } while (strm->avail_out && ret != Z_STREAM_END);

  00056	83 7f 10 00	 cmp	 DWORD PTR [edi+16], 0
  0005a	74 1b		 je	 SHORT $LN9@gz_decomp
  0005c	83 fe 01	 cmp	 esi, 1
  0005f	75 b3		 jne	 SHORT $LL11@gz_decomp
  00061	eb 14		 jmp	 SHORT $LN9@gz_decomp
$LN18@gz_decomp:

; 185  :             gz_error(state, Z_BUF_ERROR, "unexpected end of file");

  00063	68 00 00 00 00	 push	 OFFSET ??_C@_0BH@CFIIDOJD@unexpected?5end?5of?5file?$AA@
  00068	ba fb ff ff ff	 mov	 edx, -5			; fffffffbH
  0006d	8b cb		 mov	 ecx, ebx
  0006f	e8 00 00 00 00	 call	 _gz_error
  00074	83 c4 04	 add	 esp, 4
$LN9@gz_decomp:

; 206  : 
; 207  :     /* update available output */
; 208  :     state->x.have = had - strm->avail_out;

  00077	8b 4d fc	 mov	 ecx, DWORD PTR _had$1$[ebp]
  0007a	2b 4f 10	 sub	 ecx, DWORD PTR [edi+16]
  0007d	89 0b		 mov	 DWORD PTR [ebx], ecx

; 209  :     state->x.next = strm->next_out - state->x.have;

  0007f	8b 47 0c	 mov	 eax, DWORD PTR [edi+12]
  00082	2b c1		 sub	 eax, ecx
  00084	89 43 04	 mov	 DWORD PTR [ebx+4], eax

; 210  : 
; 211  :     /* if the gzip stream completed successfully, look for another */
; 212  :     if (ret == Z_STREAM_END)

  00087	83 fe 01	 cmp	 esi, 1
  0008a	75 07		 jne	 SHORT $LN1@gz_decomp

; 213  :         state->how = LOOK;

  0008c	c7 43 30 00 00
	00 00		 mov	 DWORD PTR [ebx+48], 0
$LN1@gz_decomp:
  00093	5f		 pop	 edi
  00094	5e		 pop	 esi

; 214  : 
; 215  :     /* good decompression */
; 216  :     return 0;

  00095	33 c0		 xor	 eax, eax
  00097	5b		 pop	 ebx

; 217  : }

  00098	8b e5		 mov	 esp, ebp
  0009a	5d		 pop	 ebp
  0009b	c3		 ret	 0
$LN21@gz_decomp:

; 201  :             gz_error(state, Z_DATA_ERROR,
; 202  :                      strm->msg == NULL ? "compressed data error" : strm->msg);

  0009c	8b 47 18	 mov	 eax, DWORD PTR [edi+24]
  0009f	b9 00 00 00 00	 mov	 ecx, OFFSET ??_C@_0BG@HCKBMIHF@compressed?5data?5error?$AA@
  000a4	85 c0		 test	 eax, eax
  000a6	ba fd ff ff ff	 mov	 edx, -3			; fffffffdH
  000ab	0f 45 c8	 cmovne	 ecx, eax
  000ae	51		 push	 ecx
  000af	8b cb		 mov	 ecx, ebx
  000b1	e8 00 00 00 00	 call	 _gz_error
  000b6	83 c4 04	 add	 esp, 4
  000b9	83 c8 ff	 or	 eax, -1
  000bc	5f		 pop	 edi
  000bd	5e		 pop	 esi
  000be	5b		 pop	 ebx

; 217  : }

  000bf	8b e5		 mov	 esp, ebp
  000c1	5d		 pop	 ebp
  000c2	c3		 ret	 0
$LN20@gz_decomp:

; 197  :             gz_error(state, Z_MEM_ERROR, "out of memory");

  000c3	68 00 00 00 00	 push	 OFFSET ??_C@_0O@BNNCBLEN@out?5of?5memory?$AA@
  000c8	ba fc ff ff ff	 mov	 edx, -4			; fffffffcH
  000cd	8b cb		 mov	 ecx, ebx
  000cf	e8 00 00 00 00	 call	 _gz_error
  000d4	83 c4 04	 add	 esp, 4
  000d7	83 c8 ff	 or	 eax, -1
  000da	5f		 pop	 edi
  000db	5e		 pop	 esi
  000dc	5b		 pop	 ebx

; 217  : }

  000dd	8b e5		 mov	 esp, ebp
  000df	5d		 pop	 ebp
  000e0	c3		 ret	 0
$LN5@gz_decomp:

; 192  :             gz_error(state, Z_STREAM_ERROR,
; 193  :                      "internal error: inflate stream corrupt");

  000e1	68 00 00 00 00	 push	 OFFSET ??_C@_0CH@CPOLIEKA@internal?5error?3?5inflate?5stream?5c@
  000e6	ba fe ff ff ff	 mov	 edx, -2			; fffffffeH
  000eb	8b cb		 mov	 ecx, ebx
  000ed	e8 00 00 00 00	 call	 _gz_error
  000f2	83 c4 04	 add	 esp, 4
$LN17@gz_decomp:

; 194  :             return -1;

  000f5	5f		 pop	 edi
  000f6	5e		 pop	 esi
  000f7	83 c8 ff	 or	 eax, -1
  000fa	5b		 pop	 ebx

; 217  : }

  000fb	8b e5		 mov	 esp, ebp
  000fd	5d		 pop	 ebp
  000fe	c3		 ret	 0
_gz_decomp ENDP
_TEXT	ENDS
; Function compile flags: /Ogtp
; File d:\workspace\cocos2d-x-3.8.1\projects\mygame\libs\smartfox\zlib\gzread.c
;	COMDAT _gz_fetch
_TEXT	SEGMENT
_gz_fetch PROC						; COMDAT
; _state$ = ecx

; 227  : {

  00000	56		 push	 esi
  00001	8b f1		 mov	 esi, ecx
$LL13@gz_fetch:

; 228  :     z_streamp strm = &(state->strm);
; 229  : 
; 230  :     do {
; 231  :         switch(state->how) {

  00003	8b 46 30	 mov	 eax, DWORD PTR [esi+48]
  00006	83 e8 00	 sub	 eax, 0
  00009	74 25		 je	 SHORT $LN8@gz_fetch
  0000b	48		 dec	 eax
  0000c	74 49		 je	 SHORT $LN5@gz_fetch
  0000e	48		 dec	 eax
  0000f	75 31		 jne	 SHORT $LN12@gz_fetch

; 244  :         case GZIP:      /* -> GZIP or LOOK (if end of gzip stream) */
; 245  :             strm->avail_out = state->size << 1;

  00011	8b 46 1c	 mov	 eax, DWORD PTR [esi+28]

; 246  :             strm->next_out = state->out;
; 247  :             if (gz_decomp(state) == -1)

  00014	8b ce		 mov	 ecx, esi
  00016	03 c0		 add	 eax, eax
  00018	89 46 74	 mov	 DWORD PTR [esi+116], eax
  0001b	8b 46 28	 mov	 eax, DWORD PTR [esi+40]
  0001e	89 46 70	 mov	 DWORD PTR [esi+112], eax
  00021	e8 00 00 00 00	 call	 _gz_decomp
  00026	83 f8 ff	 cmp	 eax, -1
  00029	75 17		 jne	 SHORT $LN12@gz_fetch
$LN19@gz_fetch:

; 234  :                 return -1;

  0002b	83 c8 ff	 or	 eax, -1
  0002e	5e		 pop	 esi

; 251  :     return 0;
; 252  : }

  0002f	c3		 ret	 0
$LN8@gz_fetch:

; 232  :         case LOOK:      /* -> LOOK, COPY (only if never GZIP), or GZIP */
; 233  :             if (gz_look(state) == -1)

  00030	8b ce		 mov	 ecx, esi
  00032	e8 00 00 00 00	 call	 _gz_look
  00037	83 f8 ff	 cmp	 eax, -1
  0003a	74 ef		 je	 SHORT $LN19@gz_fetch

; 235  :             if (state->how == LOOK)

  0003c	83 7e 30 00	 cmp	 DWORD PTR [esi+48], 0
  00040	74 34		 je	 SHORT $LN20@gz_fetch
$LN12@gz_fetch:

; 248  :                 return -1;
; 249  :         }
; 250  :     } while (state->x.have == 0 && (!state->eof || strm->avail_in));

  00042	83 3e 00	 cmp	 DWORD PTR [esi], 0
  00045	75 2f		 jne	 SHORT $LN20@gz_fetch
  00047	83 7e 40 00	 cmp	 DWORD PTR [esi+64], 0
  0004b	74 b6		 je	 SHORT $LL13@gz_fetch
  0004d	83 7e 68 00	 cmp	 DWORD PTR [esi+104], 0
  00051	75 b0		 jne	 SHORT $LL13@gz_fetch

; 243  :             return 0;

  00053	33 c0		 xor	 eax, eax
  00055	5e		 pop	 esi

; 251  :     return 0;
; 252  : }

  00056	c3		 ret	 0
$LN5@gz_fetch:

; 236  :                 return 0;
; 237  :             break;
; 238  :         case COPY:      /* -> COPY */
; 239  :             if (gz_load(state, state->out, state->size << 1, &(state->x.have))
; 240  :                     == -1)

  00057	8b 46 1c	 mov	 eax, DWORD PTR [esi+28]
  0005a	8b ce		 mov	 ecx, esi
  0005c	8b 56 28	 mov	 edx, DWORD PTR [esi+40]
  0005f	03 c0		 add	 eax, eax
  00061	56		 push	 esi
  00062	50		 push	 eax
  00063	e8 00 00 00 00	 call	 _gz_load
  00068	83 c4 08	 add	 esp, 8
  0006b	83 f8 ff	 cmp	 eax, -1
  0006e	74 bb		 je	 SHORT $LN19@gz_fetch

; 241  :                 return -1;
; 242  :             state->x.next = state->out;

  00070	8b 46 28	 mov	 eax, DWORD PTR [esi+40]
  00073	89 46 04	 mov	 DWORD PTR [esi+4], eax
$LN20@gz_fetch:

; 243  :             return 0;

  00076	33 c0		 xor	 eax, eax
  00078	5e		 pop	 esi

; 251  :     return 0;
; 252  : }

  00079	c3		 ret	 0
_gz_fetch ENDP
_TEXT	ENDS
; Function compile flags: /Ogtp
; File d:\workspace\cocos2d-x-3.8.1\projects\mygame\libs\smartfox\zlib\gzread.c
;	COMDAT _gz_skip
_TEXT	SEGMENT
_len$ = 8						; size = 8
_gz_skip PROC						; COMDAT
; _state$ = ecx

; 258  : {

  00000	55		 push	 ebp
  00001	8b ec		 mov	 ebp, esp
  00003	53		 push	 ebx

; 259  :     unsigned n;
; 260  : 
; 261  :     /* skip over len bytes or reach end-of-file, whichever comes first */
; 262  :     while (len)

  00004	8b 5d 0c	 mov	 ebx, DWORD PTR _len$[ebp+4]
  00007	56		 push	 esi
  00008	57		 push	 edi
  00009	8b 7d 08	 mov	 edi, DWORD PTR _len$[ebp]
  0000c	8b f1		 mov	 esi, ecx
  0000e	8b c7		 mov	 eax, edi
  00010	0b c3		 or	 eax, ebx
  00012	74 4b		 je	 SHORT $LN6@gz_skip
$LL7@gz_skip:

; 263  :         /* skip over whatever is in output buffer */
; 264  :         if (state->x.have) {

  00014	8b 06		 mov	 eax, DWORD PTR [esi]
  00016	85 c0		 test	 eax, eax
  00018	74 27		 je	 SHORT $LN5@gz_skip

; 265  :             n = GT_OFF(state->x.have) || (z_off64_t)state->x.have > len ?
; 266  :                 (unsigned)len : state->x.have;

  0001a	33 c9		 xor	 ecx, ecx
  0001c	3b cb		 cmp	 ecx, ebx
  0001e	7f 0a		 jg	 SHORT $LN10@gz_skip
  00020	7c 04		 jl	 SHORT $LN17@gz_skip
  00022	3b c7		 cmp	 eax, edi
  00024	77 04		 ja	 SHORT $LN10@gz_skip
$LN17@gz_skip:
  00026	8b c8		 mov	 ecx, eax
  00028	eb 02		 jmp	 SHORT $LN11@gz_skip
$LN10@gz_skip:
  0002a	8b cf		 mov	 ecx, edi
$LN11@gz_skip:

; 267  :             state->x.have -= n;
; 268  :             state->x.next += n;

  0002c	01 4e 04	 add	 DWORD PTR [esi+4], ecx
  0002f	2b c1		 sub	 eax, ecx

; 269  :             state->x.pos += n;

  00031	01 4e 08	 add	 DWORD PTR [esi+8], ecx
  00034	89 06		 mov	 DWORD PTR [esi], eax
  00036	83 56 0c 00	 adc	 DWORD PTR [esi+12], 0

; 270  :             len -= n;

  0003a	2b f9		 sub	 edi, ecx
  0003c	83 db 00	 sbb	 ebx, 0
  0003f	eb 18		 jmp	 SHORT $LN1@gz_skip
$LN5@gz_skip:

; 271  :         }
; 272  : 
; 273  :         /* output buffer empty -- return if we're at the end of the input */
; 274  :         else if (state->eof && state->strm.avail_in == 0)

  00041	83 7e 40 00	 cmp	 DWORD PTR [esi+64], 0
  00045	74 06		 je	 SHORT $LN3@gz_skip
  00047	83 7e 68 00	 cmp	 DWORD PTR [esi+104], 0
  0004b	74 12		 je	 SHORT $LN6@gz_skip
$LN3@gz_skip:

; 275  :             break;
; 276  : 
; 277  :         /* need more data to skip -- load up output buffer */
; 278  :         else {
; 279  :             /* get more output, looking for header if required */
; 280  :             if (gz_fetch(state) == -1)

  0004d	8b ce		 mov	 ecx, esi
  0004f	e8 00 00 00 00	 call	 _gz_fetch
  00054	83 f8 ff	 cmp	 eax, -1
  00057	74 0d		 je	 SHORT $LN14@gz_skip
$LN1@gz_skip:

; 259  :     unsigned n;
; 260  : 
; 261  :     /* skip over len bytes or reach end-of-file, whichever comes first */
; 262  :     while (len)

  00059	8b c7		 mov	 eax, edi
  0005b	0b c3		 or	 eax, ebx
  0005d	75 b5		 jne	 SHORT $LL7@gz_skip
$LN6@gz_skip:
  0005f	5f		 pop	 edi
  00060	5e		 pop	 esi

; 282  :         }
; 283  :     return 0;

  00061	33 c0		 xor	 eax, eax
  00063	5b		 pop	 ebx

; 284  : }

  00064	5d		 pop	 ebp
  00065	c3		 ret	 0
$LN14@gz_skip:
  00066	5f		 pop	 edi
  00067	5e		 pop	 esi

; 281  :                 return -1;

  00068	83 c8 ff	 or	 eax, -1
  0006b	5b		 pop	 ebx

; 284  : }

  0006c	5d		 pop	 ebp
  0006d	c3		 ret	 0
_gz_skip ENDP
_TEXT	ENDS
; Function compile flags: /Ogtp
; File d:\workspace\cocos2d-x-3.8.1\projects\mygame\libs\smartfox\zlib\gzread.c
;	COMDAT _gzread@12
_TEXT	SEGMENT
_n$ = 8							; size = 4
_file$ = 8						; size = 4
_buf$ = 12						; size = 4
_got$1$ = 16						; size = 4
_len$ = 16						; size = 4
_gzread@12 PROC						; COMDAT

; 291  : {

  00000	55		 push	 ebp
  00001	8b ec		 mov	 ebp, esp
  00003	56		 push	 esi

; 292  :     unsigned got, n;
; 293  :     gz_statep state;
; 294  :     z_streamp strm;
; 295  : 
; 296  :     /* get internal structure */
; 297  :     if (file == NULL)

  00004	8b 75 08	 mov	 esi, DWORD PTR _file$[ebp]
  00007	85 f6		 test	 esi, esi
  00009	75 08		 jne	 SHORT $LN22@gzread
$LN20@gzread:

; 298  :         return -1;

  0000b	83 c8 ff	 or	 eax, -1
  0000e	5e		 pop	 esi

; 375  : 
; 376  :     /* return number of bytes read into user buffer (will fit in int) */
; 377  :     return (int)got;
; 378  : }

  0000f	5d		 pop	 ebp
  00010	c2 0c 00	 ret	 12			; 0000000cH
$LN22@gzread:

; 299  :     state = (gz_statep)file;
; 300  :     strm = &(state->strm);
; 301  : 
; 302  :     /* check that we're reading and that there's no (serious) error */
; 303  :     if (state->mode != GZ_READ ||
; 304  :             (state->err != Z_OK && state->err != Z_BUF_ERROR))

  00013	81 7e 10 4f 1c
	00 00		 cmp	 DWORD PTR [esi+16], 7247 ; 00001c4fH
  0001a	75 ef		 jne	 SHORT $LN20@gzread
  0001c	8b 46 5c	 mov	 eax, DWORD PTR [esi+92]
  0001f	85 c0		 test	 eax, eax
  00021	74 05		 je	 SHORT $LN21@gzread
  00023	83 f8 fb	 cmp	 eax, -5			; fffffffbH
  00026	75 e3		 jne	 SHORT $LN20@gzread
$LN21@gzread:
  00028	53		 push	 ebx

; 305  :         return -1;
; 306  : 
; 307  :     /* since an int is returned, make sure len fits in one, otherwise return
; 308  :        with an error (this avoids the flaw in the interface) */
; 309  :     if ((int)len < 0) {

  00029	8b 5d 10	 mov	 ebx, DWORD PTR _len$[ebp]
  0002c	85 db		 test	 ebx, ebx
  0002e	79 1d		 jns	 SHORT $LN36@gzread

; 310  :         gz_error(state, Z_DATA_ERROR, "requested length does not fit in int");

  00030	68 00 00 00 00	 push	 OFFSET ??_C@_0CF@MLPJFDMM@requested?5length?5does?5not?5fit?5in@
  00035	ba fd ff ff ff	 mov	 edx, -3			; fffffffdH
  0003a	8b ce		 mov	 ecx, esi
  0003c	e8 00 00 00 00	 call	 _gz_error
  00041	83 c4 04	 add	 esp, 4
$LN37@gzread:

; 311  :         return -1;

  00044	5b		 pop	 ebx
  00045	83 c8 ff	 or	 eax, -1
  00048	5e		 pop	 esi

; 375  : 
; 376  :     /* return number of bytes read into user buffer (will fit in int) */
; 377  :     return (int)got;
; 378  : }

  00049	5d		 pop	 ebp
  0004a	c2 0c 00	 ret	 12			; 0000000cH
$LN36@gzread:

; 312  :     }
; 313  : 
; 314  :     /* if len is zero, avoid unnecessary operations */
; 315  :     if (len == 0)

  0004d	75 08		 jne	 SHORT $LN18@gzread

; 316  :         return 0;

  0004f	5b		 pop	 ebx
  00050	33 c0		 xor	 eax, eax
  00052	5e		 pop	 esi

; 375  : 
; 376  :     /* return number of bytes read into user buffer (will fit in int) */
; 377  :     return (int)got;
; 378  : }

  00053	5d		 pop	 ebp
  00054	c2 0c 00	 ret	 12			; 0000000cH
$LN18@gzread:

; 317  : 
; 318  :     /* process a skip request */
; 319  :     if (state->seek) {

  00057	83 7e 58 00	 cmp	 DWORD PTR [esi+88], 0
  0005b	74 1c		 je	 SHORT $LN16@gzread

; 320  :         state->seek = 0;
; 321  :         if (gz_skip(state, state->skip) == -1)

  0005d	ff 76 54	 push	 DWORD PTR [esi+84]
  00060	8b ce		 mov	 ecx, esi
  00062	c7 46 58 00 00
	00 00		 mov	 DWORD PTR [esi+88], 0
  00069	ff 76 50	 push	 DWORD PTR [esi+80]
  0006c	e8 00 00 00 00	 call	 _gz_skip
  00071	83 c4 08	 add	 esp, 8
  00074	83 f8 ff	 cmp	 eax, -1
  00077	74 cb		 je	 SHORT $LN37@gzread
$LN16@gzread:

; 322  :             return -1;
; 323  :     }
; 324  : 
; 325  :     /* get len bytes to buf, or less than len if at the end */
; 326  :     got = 0;

  00079	33 c0		 xor	 eax, eax
  0007b	89 45 10	 mov	 DWORD PTR _got$1$[ebp], eax
  0007e	57		 push	 edi
  0007f	90		 npad	 1
$LL15@gzread:

; 327  :     do {
; 328  :         /* first just try copying data from the output buffer */
; 329  :         if (state->x.have) {

  00080	8b 3e		 mov	 edi, DWORD PTR [esi]
  00082	85 ff		 test	 edi, edi
  00084	74 1f		 je	 SHORT $LN12@gzread

; 330  :             n = state->x.have > len ? len : state->x.have;
; 331  :             memcpy(buf, state->x.next, n);

  00086	8b 45 0c	 mov	 eax, DWORD PTR _buf$[ebp]
  00089	3b fb		 cmp	 edi, ebx
  0008b	0f 47 fb	 cmova	 edi, ebx
  0008e	57		 push	 edi
  0008f	ff 76 04	 push	 DWORD PTR [esi+4]
  00092	89 7d 08	 mov	 DWORD PTR _n$[ebp], edi
  00095	50		 push	 eax
  00096	e8 00 00 00 00	 call	 _memcpy

; 332  :             state->x.next += n;

  0009b	01 7e 04	 add	 DWORD PTR [esi+4], edi
  0009e	83 c4 0c	 add	 esp, 12			; 0000000cH

; 333  :             state->x.have -= n;

  000a1	29 3e		 sub	 DWORD PTR [esi], edi
  000a3	eb 5f		 jmp	 SHORT $LN2@gzread
$LN12@gzread:

; 334  :         }
; 335  : 
; 336  :         /* output buffer empty -- return if we're at the end of the input */
; 337  :         else if (state->eof && strm->avail_in == 0) {

  000a5	83 7e 40 00	 cmp	 DWORD PTR [esi+64], 0
  000a9	74 0a		 je	 SHORT $LN10@gzread
  000ab	83 7e 68 00	 cmp	 DWORD PTR [esi+104], 0
  000af	0f 84 83 00 00
	00		 je	 $LN28@gzread
$LN10@gzread:

; 339  :             break;
; 340  :         }
; 341  : 
; 342  :         /* need output data -- for small len or new stream load up our output
; 343  :            buffer */
; 344  :         else if (state->how == LOOK || len < (state->size << 1)) {

  000b5	8b 4e 30	 mov	 ecx, DWORD PTR [esi+48]
  000b8	85 c9		 test	 ecx, ecx
  000ba	74 5e		 je	 SHORT $LN7@gzread
  000bc	8b 46 1c	 mov	 eax, DWORD PTR [esi+28]
  000bf	03 c0		 add	 eax, eax
  000c1	3b d8		 cmp	 ebx, eax
  000c3	72 55		 jb	 SHORT $LN7@gzread

; 348  :             continue;       /* no progress yet -- go back to copy above */
; 349  :             /* the copy above assures that we will leave with space in the
; 350  :                output buffer, allowing at least one gzungetc() to succeed */
; 351  :         }
; 352  : 
; 353  :         /* large len -- read directly into user buffer */
; 354  :         else if (state->how == COPY) {      /* read directly */

  000c5	83 f9 01	 cmp	 ecx, 1

; 355  :             if (gz_load(state, buf, len, &n) == -1)

  000c8	8b ce		 mov	 ecx, esi
  000ca	75 1a		 jne	 SHORT $LN4@gzread
  000cc	8b 55 0c	 mov	 edx, DWORD PTR _buf$[ebp]
  000cf	8d 45 08	 lea	 eax, DWORD PTR _n$[ebp]
  000d2	50		 push	 eax
  000d3	53		 push	 ebx
  000d4	e8 00 00 00 00	 call	 _gz_load
  000d9	83 c4 08	 add	 esp, 8
  000dc	83 f8 ff	 cmp	 eax, -1
  000df	74 65		 je	 SHORT $LN31@gzread

; 356  :                 return -1;
; 357  :         }
; 358  : 
; 359  :         /* large len -- decompress directly into user buffer */
; 360  :         else {  /* state->how == GZIP */

  000e1	8b 7d 08	 mov	 edi, DWORD PTR _n$[ebp]
  000e4	eb 1e		 jmp	 SHORT $LN2@gzread
$LN4@gzread:

; 361  :             strm->avail_out = len;
; 362  :             strm->next_out = buf;

  000e6	8b 45 0c	 mov	 eax, DWORD PTR _buf$[ebp]
  000e9	89 5e 74	 mov	 DWORD PTR [esi+116], ebx
  000ec	89 46 70	 mov	 DWORD PTR [esi+112], eax

; 363  :             if (gz_decomp(state) == -1)

  000ef	e8 00 00 00 00	 call	 _gz_decomp
  000f4	83 f8 ff	 cmp	 eax, -1
  000f7	74 4d		 je	 SHORT $LN31@gzread

; 364  :                 return -1;
; 365  :             n = state->x.have;

  000f9	8b 3e		 mov	 edi, DWORD PTR [esi]
  000fb	89 7d 08	 mov	 DWORD PTR _n$[ebp], edi

; 366  :             state->x.have = 0;

  000fe	c7 06 00 00 00
	00		 mov	 DWORD PTR [esi], 0
$LN2@gzread:

; 367  :         }
; 368  : 
; 369  :         /* update progress */
; 370  :         len -= n;
; 371  :         buf = (char *)buf + n;
; 372  :         got += n;

  00104	8b 45 10	 mov	 eax, DWORD PTR _got$1$[ebp]
  00107	2b df		 sub	 ebx, edi
  00109	01 7d 0c	 add	 DWORD PTR _buf$[ebp], edi
  0010c	03 c7		 add	 eax, edi

; 373  :         state->x.pos += n;

  0010e	01 7e 08	 add	 DWORD PTR [esi+8], edi
  00111	89 45 10	 mov	 DWORD PTR _got$1$[ebp], eax
  00114	83 56 0c 00	 adc	 DWORD PTR [esi+12], 0
  00118	eb 0f		 jmp	 SHORT $LN14@gzread
$LN7@gzread:

; 345  :             /* get more output, looking for header if required */
; 346  :             if (gz_fetch(state) == -1)

  0011a	8b ce		 mov	 ecx, esi
  0011c	e8 00 00 00 00	 call	 _gz_fetch
  00121	83 f8 ff	 cmp	 eax, -1
  00124	74 20		 je	 SHORT $LN31@gzread
  00126	8b 45 10	 mov	 eax, DWORD PTR _got$1$[ebp]
$LN14@gzread:

; 374  :     } while (len);

  00129	85 db		 test	 ebx, ebx
  0012b	0f 85 4f ff ff
	ff		 jne	 $LL15@gzread
  00131	5f		 pop	 edi
  00132	5b		 pop	 ebx
  00133	5e		 pop	 esi

; 375  : 
; 376  :     /* return number of bytes read into user buffer (will fit in int) */
; 377  :     return (int)got;
; 378  : }

  00134	5d		 pop	 ebp
  00135	c2 0c 00	 ret	 12			; 0000000cH
$LN28@gzread:
  00138	5f		 pop	 edi
  00139	5b		 pop	 ebx

; 338  :             state->past = 1;        /* tried to read past end */

  0013a	c7 46 44 01 00
	00 00		 mov	 DWORD PTR [esi+68], 1
  00141	5e		 pop	 esi

; 375  : 
; 376  :     /* return number of bytes read into user buffer (will fit in int) */
; 377  :     return (int)got;
; 378  : }

  00142	5d		 pop	 ebp
  00143	c2 0c 00	 ret	 12			; 0000000cH
$LN31@gzread:
  00146	5f		 pop	 edi
  00147	5b		 pop	 ebx

; 347  :                 return -1;

  00148	83 c8 ff	 or	 eax, -1
  0014b	5e		 pop	 esi

; 375  : 
; 376  :     /* return number of bytes read into user buffer (will fit in int) */
; 377  :     return (int)got;
; 378  : }

  0014c	5d		 pop	 ebp
  0014d	c2 0c 00	 ret	 12			; 0000000cH
_gzread@12 ENDP
_TEXT	ENDS
; Function compile flags: /Ogtp
; File d:\workspace\cocos2d-x-3.8.1\projects\mygame\libs\smartfox\zlib\gzread.c
;	COMDAT _gzgetc@4
_TEXT	SEGMENT
_file$ = 8						; size = 4
_buf$ = 11						; size = 1
_gzgetc@4 PROC						; COMDAT

; 384  : {

  00000	55		 push	 ebp
  00001	8b ec		 mov	 ebp, esp

; 385  :     int ret;
; 386  :     unsigned char buf[1];
; 387  :     gz_statep state;
; 388  : 
; 389  :     /* get internal structure */
; 390  :     if (file == NULL)

  00003	8b 55 08	 mov	 edx, DWORD PTR _file$[ebp]
  00006	85 d2		 test	 edx, edx
  00008	74 4f		 je	 SHORT $LN2@gzgetc

; 391  :         return -1;
; 392  :     state = (gz_statep)file;
; 393  : 
; 394  :     /* check that we're reading and that there's no (serious) error */
; 395  :     if (state->mode != GZ_READ ||
; 396  :         (state->err != Z_OK && state->err != Z_BUF_ERROR))

  0000a	81 7a 10 4f 1c
	00 00		 cmp	 DWORD PTR [edx+16], 7247 ; 00001c4fH
  00011	75 46		 jne	 SHORT $LN2@gzgetc
  00013	8b 42 5c	 mov	 eax, DWORD PTR [edx+92]
  00016	85 c0		 test	 eax, eax
  00018	74 05		 je	 SHORT $LN3@gzgetc
  0001a	83 f8 fb	 cmp	 eax, -5			; fffffffbH
  0001d	75 3a		 jne	 SHORT $LN2@gzgetc
$LN3@gzgetc:

; 398  : 
; 399  :     /* try output buffer (no need to check for skip request) */
; 400  :     if (state->x.have) {

  0001f	8b 02		 mov	 eax, DWORD PTR [edx]
  00021	85 c0		 test	 eax, eax
  00023	74 1b		 je	 SHORT $LN1@gzgetc

; 401  :         state->x.have--;

  00025	48		 dec	 eax

; 402  :         state->x.pos++;

  00026	83 42 08 01	 add	 DWORD PTR [edx+8], 1
  0002a	89 02		 mov	 DWORD PTR [edx], eax

; 403  :         return *(state->x.next)++;

  0002c	8b 42 04	 mov	 eax, DWORD PTR [edx+4]
  0002f	83 52 0c 00	 adc	 DWORD PTR [edx+12], 0
  00033	8a 08		 mov	 cl, BYTE PTR [eax]
  00035	40		 inc	 eax
  00036	89 42 04	 mov	 DWORD PTR [edx+4], eax
  00039	0f b6 c1	 movzx	 eax, cl

; 409  : }

  0003c	5d		 pop	 ebp
  0003d	c2 04 00	 ret	 4
$LN1@gzgetc:

; 404  :     }
; 405  : 
; 406  :     /* nothing there -- try gzread() */
; 407  :     ret = gzread(file, buf, 1);

  00040	6a 01		 push	 1
  00042	8d 45 0b	 lea	 eax, DWORD PTR _buf$[ebp]
  00045	50		 push	 eax
  00046	52		 push	 edx
  00047	e8 00 00 00 00	 call	 _gzread@12

; 408  :     return ret < 1 ? -1 : buf[0];

  0004c	83 f8 01	 cmp	 eax, 1
  0004f	7c 08		 jl	 SHORT $LN2@gzgetc
  00051	0f b6 45 0b	 movzx	 eax, BYTE PTR _buf$[ebp]

; 409  : }

  00055	5d		 pop	 ebp
  00056	c2 04 00	 ret	 4
$LN2@gzgetc:

; 397  :         return -1;

  00059	83 c8 ff	 or	 eax, -1

; 409  : }

  0005c	5d		 pop	 ebp
  0005d	c2 04 00	 ret	 4
_gzgetc@4 ENDP
_TEXT	ENDS
; Function compile flags: /Ogtp
; File d:\workspace\cocos2d-x-3.8.1\projects\mygame\libs\smartfox\zlib\gzread.c
;	COMDAT _gzgetc_@4
_TEXT	SEGMENT
_file$ = 8						; size = 4
_gzgetc_@4 PROC						; COMDAT

; 413  : {

  00000	55		 push	 ebp
  00001	8b ec		 mov	 ebp, esp

; 415  : }

  00003	5d		 pop	 ebp

; 414  :     return gzgetc(file);

  00004	e9 00 00 00 00	 jmp	 _gzgetc@4
_gzgetc_@4 ENDP
_TEXT	ENDS
; Function compile flags: /Ogtp
; File d:\workspace\cocos2d-x-3.8.1\projects\mygame\libs\smartfox\zlib\gzread.c
;	COMDAT _gzungetc@8
_TEXT	SEGMENT
_c$ = 8							; size = 4
_file$ = 12						; size = 4
_gzungetc@8 PROC					; COMDAT

; 421  : {

  00000	55		 push	 ebp
  00001	8b ec		 mov	 ebp, esp
  00003	56		 push	 esi

; 422  :     gz_statep state;
; 423  : 
; 424  :     /* get internal structure */
; 425  :     if (file == NULL)

  00004	8b 75 0c	 mov	 esi, DWORD PTR _file$[ebp]
  00007	85 f6		 test	 esi, esi
  00009	75 08		 jne	 SHORT $LN11@gzungetc
$LN21@gzungetc:

; 426  :         return -1;

  0000b	83 c8 ff	 or	 eax, -1
  0000e	5e		 pop	 esi

; 475  : }

  0000f	5d		 pop	 ebp
  00010	c2 08 00	 ret	 8
$LN11@gzungetc:

; 427  :     state = (gz_statep)file;
; 428  : 
; 429  :     /* check that we're reading and that there's no (serious) error */
; 430  :     if (state->mode != GZ_READ ||
; 431  :         (state->err != Z_OK && state->err != Z_BUF_ERROR))

  00013	81 7e 10 4f 1c
	00 00		 cmp	 DWORD PTR [esi+16], 7247 ; 00001c4fH
  0001a	75 ef		 jne	 SHORT $LN21@gzungetc
  0001c	8b 46 5c	 mov	 eax, DWORD PTR [esi+92]
  0001f	85 c0		 test	 eax, eax
  00021	74 05		 je	 SHORT $LN10@gzungetc
  00023	83 f8 fb	 cmp	 eax, -5			; fffffffbH
  00026	75 e3		 jne	 SHORT $LN21@gzungetc
$LN10@gzungetc:

; 432  :         return -1;
; 433  : 
; 434  :     /* process a skip request */
; 435  :     if (state->seek) {

  00028	83 7e 58 00	 cmp	 DWORD PTR [esi+88], 0
  0002c	74 1c		 je	 SHORT $LN7@gzungetc

; 436  :         state->seek = 0;
; 437  :         if (gz_skip(state, state->skip) == -1)

  0002e	ff 76 54	 push	 DWORD PTR [esi+84]
  00031	8b ce		 mov	 ecx, esi
  00033	c7 46 58 00 00
	00 00		 mov	 DWORD PTR [esi+88], 0
  0003a	ff 76 50	 push	 DWORD PTR [esi+80]
  0003d	e8 00 00 00 00	 call	 _gz_skip
  00042	83 c4 08	 add	 esp, 8
  00045	83 f8 ff	 cmp	 eax, -1
  00048	74 c1		 je	 SHORT $LN21@gzungetc
$LN7@gzungetc:
  0004a	53		 push	 ebx

; 438  :             return -1;
; 439  :     }
; 440  : 
; 441  :     /* can't push EOF */
; 442  :     if (c < 0)

  0004b	8b 5d 08	 mov	 ebx, DWORD PTR _c$[ebp]
  0004e	85 db		 test	 ebx, ebx
  00050	78 38		 js	 SHORT $LN20@gzungetc

; 443  :         return -1;
; 444  : 
; 445  :     /* if output buffer empty, put byte at end (allows more pushing) */
; 446  :     if (state->x.have == 0) {

  00052	8b 0e		 mov	 ecx, DWORD PTR [esi]

; 447  :         state->x.have = 1;
; 448  :         state->x.next = state->out + (state->size << 1) - 1;

  00054	8b 56 1c	 mov	 edx, DWORD PTR [esi+28]
  00057	85 c9		 test	 ecx, ecx
  00059	75 14		 jne	 SHORT $LN5@gzungetc
  0005b	8b 4e 28	 mov	 ecx, DWORD PTR [esi+40]
  0005e	c7 06 01 00 00
	00		 mov	 DWORD PTR [esi], 1
  00064	8d 0c 51	 lea	 ecx, DWORD PTR [ecx+edx*2]
  00067	49		 dec	 ecx
  00068	89 4e 04	 mov	 DWORD PTR [esi+4], ecx

; 449  :         state->x.next[0] = c;

  0006b	88 19		 mov	 BYTE PTR [ecx], bl

; 450  :         state->x.pos--;
; 451  :         state->past = 0;
; 452  :         return c;

  0006d	eb 4e		 jmp	 SHORT $LN19@gzungetc
$LN5@gzungetc:

; 453  :     }
; 454  : 
; 455  :     /* if no room, give up (must have already done a gzungetc()) */
; 456  :     if (state->x.have == (state->size << 1)) {

  0006f	8d 04 12	 lea	 eax, DWORD PTR [edx+edx]
  00072	3b c8		 cmp	 ecx, eax
  00074	75 1d		 jne	 SHORT $LN4@gzungetc

; 457  :         gz_error(state, Z_DATA_ERROR, "out of room to push characters");

  00076	68 00 00 00 00	 push	 OFFSET ??_C@_0BP@IIKIGMCC@out?5of?5room?5to?5push?5characters?$AA@
  0007b	ba fd ff ff ff	 mov	 edx, -3			; fffffffdH
  00080	8b ce		 mov	 ecx, esi
  00082	e8 00 00 00 00	 call	 _gz_error
  00087	83 c4 04	 add	 esp, 4
$LN20@gzungetc:

; 458  :         return -1;

  0008a	5b		 pop	 ebx
  0008b	83 c8 ff	 or	 eax, -1
  0008e	5e		 pop	 esi

; 475  : }

  0008f	5d		 pop	 ebp
  00090	c2 08 00	 ret	 8
$LN4@gzungetc:

; 459  :     }
; 460  : 
; 461  :     /* slide output data if needed and insert byte before existing data */
; 462  :     if (state->x.next == state->out) {

  00093	8b 46 28	 mov	 eax, DWORD PTR [esi+40]
  00096	39 46 04	 cmp	 DWORD PTR [esi+4], eax
  00099	75 18		 jne	 SHORT $LN3@gzungetc

; 463  :         unsigned char *src = state->out + state->x.have;

  0009b	03 c8		 add	 ecx, eax

; 464  :         unsigned char *dest = state->out + (state->size << 1);

  0009d	8d 14 50	 lea	 edx, DWORD PTR [eax+edx*2]

; 465  :         while (src > state->out)

  000a0	3b c8		 cmp	 ecx, eax
  000a2	76 0c		 jbe	 SHORT $LN1@gzungetc
$LL2@gzungetc:

; 466  :             *--dest = *--src;

  000a4	8a 41 ff	 mov	 al, BYTE PTR [ecx-1]
  000a7	49		 dec	 ecx
  000a8	4a		 dec	 edx
  000a9	88 02		 mov	 BYTE PTR [edx], al
  000ab	3b 4e 28	 cmp	 ecx, DWORD PTR [esi+40]
  000ae	77 f4		 ja	 SHORT $LL2@gzungetc
$LN1@gzungetc:

; 467  :         state->x.next = dest;

  000b0	89 56 04	 mov	 DWORD PTR [esi+4], edx
$LN3@gzungetc:

; 468  :     }
; 469  :     state->x.have++;

  000b3	ff 06		 inc	 DWORD PTR [esi]

; 470  :     state->x.next--;

  000b5	ff 4e 04	 dec	 DWORD PTR [esi+4]
  000b8	8b 46 04	 mov	 eax, DWORD PTR [esi+4]

; 471  :     state->x.next[0] = c;

  000bb	88 18		 mov	 BYTE PTR [eax], bl
$LN19@gzungetc:

; 472  :     state->x.pos--;

  000bd	83 46 08 ff	 add	 DWORD PTR [esi+8], -1

; 473  :     state->past = 0;
; 474  :     return c;

  000c1	8b c3		 mov	 eax, ebx
  000c3	5b		 pop	 ebx
  000c4	83 56 0c ff	 adc	 DWORD PTR [esi+12], -1
  000c8	c7 46 44 00 00
	00 00		 mov	 DWORD PTR [esi+68], 0
  000cf	5e		 pop	 esi

; 475  : }

  000d0	5d		 pop	 ebp
  000d1	c2 08 00	 ret	 8
_gzungetc@8 ENDP
_TEXT	ENDS
; Function compile flags: /Ogtp
; File d:\workspace\cocos2d-x-3.8.1\projects\mygame\libs\smartfox\zlib\gzread.c
;	COMDAT _gzgets@12
_TEXT	SEGMENT
_left$1$ = 8						; size = 4
_file$ = 8						; size = 4
_eol$1$ = 12						; size = 4
_buf$ = 12						; size = 4
_str$1$ = 16						; size = 4
_len$ = 16						; size = 4
_gzgets@12 PROC						; COMDAT

; 482  : {

  00000	55		 push	 ebp
  00001	8b ec		 mov	 ebp, esp
  00003	53		 push	 ebx
  00004	56		 push	 esi
  00005	57		 push	 edi

; 483  :     unsigned left, n;
; 484  :     char *str;
; 485  :     unsigned char *eol;
; 486  :     gz_statep state;
; 487  : 
; 488  :     /* check parameters and get internal structure */
; 489  :     if (file == NULL || buf == NULL || len < 1)

  00006	8b 7d 08	 mov	 edi, DWORD PTR _file$[ebp]
  00009	85 ff		 test	 edi, edi
  0000b	0f 84 f1 00 00
	00		 je	 $LN14@gzgets
  00011	8b 5d 0c	 mov	 ebx, DWORD PTR _buf$[ebp]
  00014	85 db		 test	 ebx, ebx
  00016	0f 84 e6 00 00
	00		 je	 $LN14@gzgets
  0001c	8b 75 10	 mov	 esi, DWORD PTR _len$[ebp]
  0001f	83 fe 01	 cmp	 esi, 1
  00022	0f 8c da 00 00
	00		 jl	 $LN14@gzgets

; 491  :     state = (gz_statep)file;
; 492  : 
; 493  :     /* check that we're reading and that there's no (serious) error */
; 494  :     if (state->mode != GZ_READ ||
; 495  :         (state->err != Z_OK && state->err != Z_BUF_ERROR))

  00028	81 7f 10 4f 1c
	00 00		 cmp	 DWORD PTR [edi+16], 7247 ; 00001c4fH
  0002f	0f 85 cd 00 00
	00		 jne	 $LN14@gzgets
  00035	8b 47 5c	 mov	 eax, DWORD PTR [edi+92]
  00038	85 c0		 test	 eax, eax
  0003a	74 09		 je	 SHORT $LN13@gzgets
  0003c	83 f8 fb	 cmp	 eax, -5			; fffffffbH
  0003f	0f 85 bd 00 00
	00		 jne	 $LN14@gzgets
$LN13@gzgets:

; 496  :         return NULL;
; 497  : 
; 498  :     /* process a skip request */
; 499  :     if (state->seek) {

  00045	83 7f 58 00	 cmp	 DWORD PTR [edi+88], 0
  00049	74 20		 je	 SHORT $LN10@gzgets

; 500  :         state->seek = 0;
; 501  :         if (gz_skip(state, state->skip) == -1)

  0004b	ff 77 54	 push	 DWORD PTR [edi+84]
  0004e	8b cf		 mov	 ecx, edi
  00050	c7 47 58 00 00
	00 00		 mov	 DWORD PTR [edi+88], 0
  00057	ff 77 50	 push	 DWORD PTR [edi+80]
  0005a	e8 00 00 00 00	 call	 _gz_skip
  0005f	83 c4 08	 add	 esp, 8
  00062	83 f8 ff	 cmp	 eax, -1
  00065	0f 84 97 00 00
	00		 je	 $LN14@gzgets
$LN10@gzgets:

; 502  :             return NULL;
; 503  :     }
; 504  : 
; 505  :     /* copy output bytes up to new line or len - 1, whichever comes first --
; 506  :        append a terminating zero to the string (we don't check for a zero in
; 507  :        the contents, let the user worry about that) */
; 508  :     str = buf;
; 509  :     left = (unsigned)len - 1;

  0006b	8d 46 ff	 lea	 eax, DWORD PTR [esi-1]
  0006e	89 5d 10	 mov	 DWORD PTR _str$1$[ebp], ebx
  00071	89 45 08	 mov	 DWORD PTR _left$1$[ebp], eax

; 510  :     if (left) do {

  00074	85 c0		 test	 eax, eax
  00076	0f 84 86 00 00
	00		 je	 $LN14@gzgets
  0007c	8d 64 24 00	 npad	 4
$LL8@gzgets:

; 511  :         /* assure that something is in the output buffer */
; 512  :         if (state->x.have == 0 && gz_fetch(state) == -1)

  00080	8b 37		 mov	 esi, DWORD PTR [edi]
  00082	85 f6		 test	 esi, esi
  00084	75 15		 jne	 SHORT $LN26@gzgets
  00086	8b cf		 mov	 ecx, edi
  00088	e8 00 00 00 00	 call	 _gz_fetch
  0008d	83 f8 ff	 cmp	 eax, -1
  00090	74 70		 je	 SHORT $LN14@gzgets

; 513  :             return NULL;                /* error */
; 514  :         if (state->x.have == 0) {       /* end of file */

  00092	8b 37		 mov	 esi, DWORD PTR [edi]
  00094	85 f6		 test	 esi, esi
  00096	74 52		 je	 SHORT $LN22@gzgets
  00098	8b 45 08	 mov	 eax, DWORD PTR _left$1$[ebp]
$LN26@gzgets:

; 516  :             break;                      /* return what we have */
; 517  :         }
; 518  : 
; 519  :         /* look for end-of-line in current output buffer */
; 520  :         n = state->x.have > left ? left : state->x.have;

  0009b	3b f0		 cmp	 esi, eax
  0009d	0f 47 f0	 cmova	 esi, eax

; 521  :         eol = memchr(state->x.next, '\n', n);

  000a0	56		 push	 esi
  000a1	6a 0a		 push	 10			; 0000000aH
  000a3	ff 77 04	 push	 DWORD PTR [edi+4]
  000a6	e8 00 00 00 00	 call	 _memchr
  000ab	83 c4 0c	 add	 esp, 12			; 0000000cH
  000ae	89 45 0c	 mov	 DWORD PTR _eol$1$[ebp], eax

; 522  :         if (eol != NULL)

  000b1	85 c0		 test	 eax, eax
  000b3	74 06		 je	 SHORT $LN3@gzgets

; 523  :             n = (unsigned)(eol - state->x.next) + 1;

  000b5	8b f0		 mov	 esi, eax
  000b7	2b 77 04	 sub	 esi, DWORD PTR [edi+4]
  000ba	46		 inc	 esi
$LN3@gzgets:

; 524  : 
; 525  :         /* copy through end-of-line, or remainder if not found */
; 526  :         memcpy(buf, state->x.next, n);

  000bb	56		 push	 esi
  000bc	ff 77 04	 push	 DWORD PTR [edi+4]
  000bf	53		 push	 ebx
  000c0	e8 00 00 00 00	 call	 _memcpy

; 527  :         state->x.have -= n;

  000c5	29 37		 sub	 DWORD PTR [edi], esi
  000c7	83 c4 0c	 add	 esp, 12			; 0000000cH

; 528  :         state->x.next += n;

  000ca	01 77 04	 add	 DWORD PTR [edi+4], esi

; 529  :         state->x.pos += n;

  000cd	01 77 08	 add	 DWORD PTR [edi+8], esi

; 530  :         left -= n;

  000d0	8b 45 08	 mov	 eax, DWORD PTR _left$1$[ebp]
  000d3	83 57 0c 00	 adc	 DWORD PTR [edi+12], 0
  000d7	2b c6		 sub	 eax, esi

; 531  :         buf += n;

  000d9	03 de		 add	 ebx, esi
  000db	89 45 08	 mov	 DWORD PTR _left$1$[ebp], eax

; 532  :     } while (left && eol == NULL);

  000de	85 c0		 test	 eax, eax
  000e0	74 0f		 je	 SHORT $LN2@gzgets
  000e2	83 7d 0c 00	 cmp	 DWORD PTR _eol$1$[ebp], 0
  000e6	74 98		 je	 SHORT $LL8@gzgets
  000e8	eb 07		 jmp	 SHORT $LN2@gzgets
$LN22@gzgets:

; 515  :             state->past = 1;            /* read past end */

  000ea	c7 47 44 01 00
	00 00		 mov	 DWORD PTR [edi+68], 1
$LN2@gzgets:

; 533  : 
; 534  :     /* return terminated string, or if nothing, end of file */
; 535  :     if (buf == str)

  000f1	8b 45 10	 mov	 eax, DWORD PTR _str$1$[ebp]
  000f4	3b d8		 cmp	 ebx, eax
  000f6	74 0a		 je	 SHORT $LN14@gzgets

; 536  :         return NULL;
; 537  :     buf[0] = 0;

  000f8	5f		 pop	 edi
  000f9	5e		 pop	 esi
  000fa	c6 03 00	 mov	 BYTE PTR [ebx], 0
  000fd	5b		 pop	 ebx

; 538  :     return str;
; 539  : }

  000fe	5d		 pop	 ebp
  000ff	c2 0c 00	 ret	 12			; 0000000cH
$LN14@gzgets:
  00102	5f		 pop	 edi
  00103	5e		 pop	 esi

; 490  :         return NULL;

  00104	33 c0		 xor	 eax, eax
  00106	5b		 pop	 ebx

; 538  :     return str;
; 539  : }

  00107	5d		 pop	 ebp
  00108	c2 0c 00	 ret	 12			; 0000000cH
_gzgets@12 ENDP
_TEXT	ENDS
; Function compile flags: /Ogtp
; File d:\workspace\cocos2d-x-3.8.1\projects\mygame\libs\smartfox\zlib\gzread.c
;	COMDAT _gzdirect@4
_TEXT	SEGMENT
_file$ = 8						; size = 4
_gzdirect@4 PROC					; COMDAT

; 544  : {

  00000	55		 push	 ebp
  00001	8b ec		 mov	 ebp, esp
  00003	56		 push	 esi

; 545  :     gz_statep state;
; 546  : 
; 547  :     /* get internal structure */
; 548  :     if (file == NULL)

  00004	8b 75 08	 mov	 esi, DWORD PTR _file$[ebp]
  00007	85 f6		 test	 esi, esi
  00009	75 07		 jne	 SHORT $LN2@gzdirect

; 549  :         return 0;

  0000b	33 c0		 xor	 eax, eax
  0000d	5e		 pop	 esi

; 559  : }

  0000e	5d		 pop	 ebp
  0000f	c2 04 00	 ret	 4
$LN2@gzdirect:

; 550  :     state = (gz_statep)file;
; 551  : 
; 552  :     /* if the state is not known, but we can find out, then do so (this is
; 553  :        mainly for right after a gzopen() or gzdopen()) */
; 554  :     if (state->mode == GZ_READ && state->how == LOOK && state->x.have == 0)

  00012	81 7e 10 4f 1c
	00 00		 cmp	 DWORD PTR [esi+16], 7247 ; 00001c4fH
  00019	75 12		 jne	 SHORT $LN1@gzdirect
  0001b	83 7e 30 00	 cmp	 DWORD PTR [esi+48], 0
  0001f	75 0c		 jne	 SHORT $LN1@gzdirect
  00021	83 3e 00	 cmp	 DWORD PTR [esi], 0
  00024	75 07		 jne	 SHORT $LN1@gzdirect

; 555  :         (void)gz_look(state);

  00026	8b ce		 mov	 ecx, esi
  00028	e8 00 00 00 00	 call	 _gz_look
$LN1@gzdirect:

; 556  : 
; 557  :     /* return 1 if transparent, 0 if processing a gzip stream */
; 558  :     return state->direct;

  0002d	8b 46 2c	 mov	 eax, DWORD PTR [esi+44]
  00030	5e		 pop	 esi

; 559  : }

  00031	5d		 pop	 ebp
  00032	c2 04 00	 ret	 4
_gzdirect@4 ENDP
_TEXT	ENDS
END
